; Function Attrs: mustprogress uwtable
define dso_local noundef double @_ZNK4Json5Value8asDoubleEv(ptr nocapture noundef nonnull readonly align 8 dereferenceable(40) %0) local_unnamed_addr #10 align 2 personality ptr @__gxx_personality_v0 {
  %2 = alloca %"class.std::__cxx11::basic_ostringstream", align 8
  %3 = alloca %"class.std::__cxx11::basic_string", align 8
  %4 = getelementptr inbounds i8, ptr %0, i64 8
  %5 = load i16, ptr %4, align 8
  %trunc = trunc i16 %5 to i8
  switch i8 %trunc, label %22 [
    i8 1, label %6
    i8 2, label %9
    i8 3, label %16
    i8 0, label %32
    i8 5, label %18
  ]

6:                                                ; preds = %1
  %7 = load i64, ptr %0, align 8
  %8 = sitofp i64 %7 to double
  br label %32

9:                                                ; preds = %1
  %10 = load i64, ptr %0, align 8
  %11 = lshr i64 %10, 1
  %12 = sitofp i64 %11 to double
  %13 = and i64 %10, 1
  %14 = sitofp i64 %13 to double
  %15 = tail call noundef double @llvm.fmuladd.f64(double %12, double 2.000000e+00, double %14)
  br label %32

16:                                               ; preds = %1
  %17 = load double, ptr %0, align 8
  br label %32

18:                                               ; preds = %1
  %19 = load i8, ptr %0, align 8
  %20 = and i8 %19, 1
  %.not = icmp eq i8 %20, 0
  %21 = select i1 %.not, double 0.000000e+00, double 1.000000e+00
  br label %32

22:                                               ; preds = %1
  call void @_ZNSt7__cxx1119basic_ostringstreamIcSt11char_traitsIcESaIcEEC1Ev(ptr noundef nonnull align 8 dereferenceable(112) %2)
  %23 = invoke noundef nonnull align 8 dereferenceable(8) ptr @_ZStlsISt11char_traitsIcEERSt13basic_ostreamIcT_ES5_PKc(ptr noundef nonnull align 8 dereferenceable(8) %2, ptr noundef nonnull @.str.24)
          to label %24 unwind label %27

24:                                               ; preds = %22
  invoke void @_ZNKSt7__cxx1119basic_ostringstreamIcSt11char_traitsIcESaIcEE3strEv(ptr dead_on_unwind nonnull writable sret(%"class.std::__cxx11::basic_string") align 8 %3, ptr noundef nonnull align 8 dereferenceable(112) %2)
          to label %25 unwind label %27

25:                                               ; preds = %24
  invoke void @_ZN4Json15throwLogicErrorERKNSt7__cxx1112basic_stringIcSt11char_traitsIcESaIcEEE(ptr noundef nonnull align 8 dereferenceable(32) %3) #37
          to label %26 unwind label %29

26:                                               ; preds = %25
  unreachable

27:                                               ; preds = %24, %22
  %28 = landingpad { ptr, i32 }
          cleanup
  br label %31

29:                                               ; preds = %25
  %30 = landingpad { ptr, i32 }
          cleanup
  call void @_ZNSt7__cxx1112basic_stringIcSt11char_traitsIcESaIcEED1Ev(ptr noundef nonnull align 8 dereferenceable(32) %3) #35
  br label %31

31:                                               ; preds = %29, %27
  %.pn = phi { ptr, i32 } [ %30, %29 ], [ %28, %27 ]
  call void @_ZNSt7__cxx1119basic_ostringstreamIcSt11char_traitsIcESaIcEED1Ev(ptr noundef nonnull align 8 dereferenceable(112) %2) #35
  resume { ptr, i32 } %.pn

32:                                               ; preds = %1, %18, %16, %9, %6
  %.04 = phi double [ %21, %18 ], [ %17, %16 ], [ %15, %9 ], [ %8, %6 ], [ 0.000000e+00, %1 ]
  ret double %.04
}